; Function Attrs: mustprogress nounwind uwtable
define internal fastcc void @"_ZZN17grpc_event_engine12experimental16PosixEventEngine15ConnectInternalENS0_18PosixSocketWrapperEN4absl12lts_2023080212AnyInvocableIFvNS4_8StatusOrISt10unique_ptrINS0_11EventEngine8EndpointESt14default_deleteIS9_EEEEEEENS8_15ResolvedAddressEONS0_15MemoryAllocatorERKNS0_15PosixTcpOptionsENSt6chrono8durationIlSt5ratioILl1ELl1000000000EEEEEN3$_2D2Ev"(ptr noundef nonnull align 16 dereferenceable(40) %this) unnamed_addr #5 align 2 personality ptr @__gxx_personality_v0 {
entry:
  %0 = getelementptr inbounds i8, ptr %this, i64 32
  %1 = load i64, ptr %0, align 16
  %and.i.i.i = and i64 %1, 1
  %cmp.i.i.i = icmp eq i64 %and.i.i.i, 0
  br i1 %cmp.i.i.i, label %_ZN4absl12lts_202308026StatusD2Ev.exit, label %if.then.i.i

if.then.i.i:                                      ; preds = %entry
  invoke void @_ZN4absl12lts_202308026Status15UnrefNonInlinedEm(i64 noundef %1)
          to label %_ZN4absl12lts_202308026StatusD2Ev.exit unwind label %terminate.lpad.i

terminate.lpad.i:                                 ; preds = %if.then.i.i
  %2 = landingpad { ptr, i32 }
          catch ptr null
  %3 = extractvalue { ptr, i32 } %2, 0
  tail call void @__clang_call_terminate(ptr %3) #27
  unreachable

_ZN4absl12lts_202308026StatusD2Ev.exit:           ; preds = %entry, %if.then.i.i
  %manager_.i.i.i = getelementptr inbounds i8, ptr %this, i64 16
  %4 = load ptr, ptr %manager_.i.i.i, align 16
  tail call void %4(i1 noundef zeroext true, ptr noundef nonnull %this, ptr noundef nonnull %this) #26
  ret void
}